(lp0
(lp1
VInventaire agro-entreprise (IR3)
p2
aVdd299f7445d14885905664e6dc93319b
p3
aa(lp4
VInventaire Producteur (IR1)
p5
aVbaee4539aefb45c58d4aa96dc197fc98
p6
aa(lp7
VTest Upload
p8
aV660700f72fc74fb5a22302983ca1e051
p9
aa.